target datalayout = "e-m:e-p270:32:32-p271:32:32-p272:64:64-i64:64-i128:128-f80:128-n8:16:32:64-S128"
target triple = "x86_64-pc-linux-gnu"

; Function Attrs: mustprogress nounwind uwtable
define noundef i64 @_Z7RawGetVPKhRjjRb(ptr noundef %0, ptr noundef nonnull align 4 dereferenceable(4) %1, i32 noundef %2, ptr noundef nonnull align 1 dereferenceable(1) %3) #1 {
  %5 = alloca i64, align 8
  %6 = alloca ptr, align 8
  %7 = alloca ptr, align 8
  %8 = alloca i32, align 4
  %9 = alloca ptr, align 8
  %10 = alloca i64, align 8
  %11 = alloca i32, align 4
  %12 = alloca i32, align 4
  %13 = alloca i8, align 1
  store ptr %0, ptr %6, align 8, !tbaa !28
  store ptr %1, ptr %7, align 8, !tbaa !44
  store i32 %2, ptr %8, align 4, !tbaa !32
  store ptr %3, ptr %9, align 8, !tbaa !46
  %14 = load ptr, ptr %9, align 8, !tbaa !46
  store i8 0, ptr %14, align 1, !tbaa !40
  call void @llvm.lifetime.start.p0(i64 8, ptr %10) #9
  store i64 0, ptr %10, align 8, !tbaa !23
  call void @llvm.lifetime.start.p0(i64 4, ptr %11) #9
  store i32 0, ptr %11, align 4, !tbaa !32
  br label %15

15:                                               ; preds = %48, %4
  %16 = load ptr, ptr %7, align 8, !tbaa !44
  %17 = load i32, ptr %16, align 4, !tbaa !32
  %18 = load i32, ptr %8, align 4, !tbaa !32
  %19 = icmp ult i32 %17, %18
  br i1 %19, label %21, label %20

20:                                               ; preds = %15
  store i32 2, ptr %12, align 4
  br label %51

21:                                               ; preds = %15
  call void @llvm.lifetime.start.p0(i64 1, ptr %13) #9
  %22 = load ptr, ptr %6, align 8, !tbaa !28
  %23 = load ptr, ptr %7, align 8, !tbaa !44
  %24 = load i32, ptr %23, align 4, !tbaa !32
  %25 = add i32 %24, 1
  store i32 %25, ptr %23, align 4, !tbaa !32
  %26 = zext i32 %24 to i64
  %27 = getelementptr inbounds nuw i8, ptr %22, i64 %26
  %28 = load i8, ptr %27, align 1, !tbaa !29
  store i8 %28, ptr %13, align 1, !tbaa !29
  %29 = load i8, ptr %13, align 1, !tbaa !29
  %30 = zext i8 %29 to i32
  %31 = and i32 %30, 127
  %32 = sext i32 %31 to i64
  %33 = load i32, ptr %11, align 4, !tbaa !32
  %34 = zext i32 %33 to i64
  %35 = shl i64 %32, %34
  %36 = load i64, ptr %10, align 8, !tbaa !23
  %37 = add i64 %36, %35
  store i64 %37, ptr %10, align 8, !tbaa !23
  %38 = load i8, ptr %13, align 1, !tbaa !29
  %39 = zext i8 %38 to i32
  %40 = and i32 %39, 128
  %41 = icmp eq i32 %40, 0
  br i1 %41, label %42, label %44

42:                                               ; preds = %21
  %43 = load i64, ptr %10, align 8, !tbaa !23
  store i64 %43, ptr %5, align 8
  store i32 1, ptr %12, align 4
  br label %45

44:                                               ; preds = %21
  store i32 0, ptr %12, align 4
  br label %45

45:                                               ; preds = %44, %42
  call void @llvm.lifetime.end.p0(i64 1, ptr %13) #9
  %46 = load i32, ptr %12, align 4
  switch i32 %46, label %51 [
    i32 0, label %47
  ]

47:                                               ; preds = %45
  br label %48

48:                                               ; preds = %47
  %49 = load i32, ptr %11, align 4, !tbaa !32
  %50 = add i32 %49, 7
  store i32 %50, ptr %11, align 4, !tbaa !32
  br label %15, !llvm.loop !48

51:                                               ; preds = %45, %20
  call void @llvm.lifetime.end.p0(i64 4, ptr %11) #9
  %52 = load i32, ptr %12, align 4
  switch i32 %52, label %55 [
    i32 2, label %53
  ]

53:                                               ; preds = %51
  %54 = load ptr, ptr %9, align 8, !tbaa !46
  store i8 1, ptr %54, align 1, !tbaa !40
  store i64 0, ptr %5, align 8
  store i32 1, ptr %12, align 4
  br label %55

55:                                               ; preds = %53, %51
  call void @llvm.lifetime.end.p0(i64 8, ptr %10) #9
  %56 = load i64, ptr %5, align 8
  ret i64 %56
}