; Function Attrs: mustprogress nofree norecurse nosync nounwind memory(argmem: readwrite) uwtable
define noundef i64 @_Z7RawGetVPKhRjjRb(ptr noundef readonly captures(none) %0, ptr noundef nonnull align 4 captures(none) dereferenceable(4) %1, i32 noundef %2, ptr noundef nonnull writeonly align 1 captures(none) dereferenceable(1) initializes((0, 1)) %3) local_unnamed_addr #9 {
  store i8 0, ptr %3, align 1, !tbaa !26
  %.promoted = load i32, ptr %1, align 4, !tbaa !28
  %.not21 = icmp ult i32 %.promoted, %2
  br i1 %.not21, label %.lr.ph.preheader, label %._crit_edge

.lr.ph.preheader:                                 ; preds = %4
  %5 = zext i32 %.promoted to i64
  br label %.lr.ph

6:                                                ; preds = %.lr.ph
  %7 = add i32 %.01723, 7
  %exitcond.not = icmp eq i32 %2, %8
  br i1 %exitcond.not, label %._crit_edge, label %.lr.ph, !llvm.loop !30

.lr.ph:                                           ; preds = %.lr.ph.preheader, %6
  %indvars.iv = phi i64 [ %5, %.lr.ph.preheader ], [ %indvars.iv.next, %6 ]
  %.01723 = phi i32 [ 0, %.lr.ph.preheader ], [ %7, %6 ]
  %.01822 = phi i64 [ 0, %.lr.ph.preheader ], [ %15, %6 ]
  %indvars.iv.next = add nuw nsw i64 %indvars.iv, 1
  %8 = trunc i64 %indvars.iv.next to i32
  store i32 %8, ptr %1, align 4, !tbaa !28
  %9 = getelementptr inbounds nuw i8, ptr %0, i64 %indvars.iv
  %10 = load i8, ptr %9, align 1, !tbaa !22
  %11 = and i8 %10, 127
  %12 = zext nneg i8 %11 to i64
  %13 = zext nneg i32 %.01723 to i64
  %14 = shl i64 %12, %13
  %15 = add i64 %14, %.01822
  %16 = icmp slt i8 %10, 0
  br i1 %16, label %6, label %.thread

._crit_edge:                                      ; preds = %6, %4
  store i8 1, ptr %3, align 1, !tbaa !26
  br label %.thread

.thread:                                          ; preds = %.lr.ph, %._crit_edge
  %.3 = phi i64 [ 0, %._crit_edge ], [ %15, %.lr.ph ]
  ret i64 %.3
}